target datalayout = "e-m:e-p270:32:32-p271:32:32-p272:64:64-i64:64-i128:128-f80:128-n8:16:32:64-S128"
target triple = "x86_64-pc-linux-gnu"

%struct._object = type { %union.anon, ptr }
%union.anon = type { i64 }
%struct.anon = type { i32, i32 }

; Function Attrs: alwaysinline nounwind uwtable
define internal i32 @_Py_IsImmortal(ptr noundef %0) #7 {
  %2 = alloca ptr, align 8
  store ptr %0, ptr %2, align 8, !tbaa !3
  %3 = load ptr, ptr %2, align 8, !tbaa !3
  %4 = getelementptr inbounds nuw %struct._object, ptr %3, i32 0, i32 0
  %5 = getelementptr inbounds nuw %struct.anon, ptr %4, i32 0, i32 0
  %6 = load i32, ptr %5, align 8, !tbaa !47
  %7 = icmp slt i32 %6, 0
  %8 = zext i1 %7 to i32
  ret i32 %8
}

; Function Attrs: alwaysinline nounwind uwtable
define internal void @Py_INCREF(ptr noundef %0) #7 {
  %2 = alloca ptr, align 8
  %3 = alloca i32, align 4
  %4 = alloca i32, align 4
  store ptr %0, ptr %2, align 8, !tbaa !3
  call void @llvm.lifetime.start.p0(i64 4, ptr %3) #10
  %5 = load ptr, ptr %2, align 8, !tbaa !3
  %6 = getelementptr inbounds nuw %struct._object, ptr %5, i32 0, i32 0
  %7 = getelementptr inbounds nuw %struct.anon, ptr %6, i32 0, i32 0
  %8 = load i32, ptr %7, align 8, !tbaa !47
  store i32 %8, ptr %3, align 4, !tbaa !17
  %9 = load i32, ptr %3, align 4, !tbaa !17
  %10 = icmp slt i32 %9, 0
  br i1 %10, label %11, label %12

11:                                               ; preds = %1
  store i32 1, ptr %4, align 4
  br label %18

12:                                               ; preds = %1
  %13 = load i32, ptr %3, align 4, !tbaa !17
  %14 = add i32 %13, 1
  %15 = load ptr, ptr %2, align 8, !tbaa !3
  %16 = getelementptr inbounds nuw %struct._object, ptr %15, i32 0, i32 0
  %17 = getelementptr inbounds nuw %struct.anon, ptr %16, i32 0, i32 0
  store i32 %14, ptr %17, align 8, !tbaa !47
  store i32 0, ptr %4, align 4
  br label %18

18:                                               ; preds = %12, %11
  call void @llvm.lifetime.end.p0(i64 4, ptr %3) #10
  %19 = load i32, ptr %4, align 4
  switch i32 %19, label %21 [
    i32 0, label %20
    i32 1, label %20
  ]

20:                                               ; preds = %18, %18
  ret void

21:                                               ; preds = %18
  unreachable
}

; Function Attrs: alwaysinline nounwind uwtable
define internal void @Py_DECREF(ptr noundef %0) #7 {
  %2 = alloca ptr, align 8
  store ptr %0, ptr %2, align 8, !tbaa !3
  %3 = load ptr, ptr %2, align 8, !tbaa !3
  %4 = call i32 @_Py_IsImmortal(ptr noundef %3)
  %5 = icmp ne i32 %4, 0
  br i1 %5, label %6, label %7

6:                                                ; preds = %1
  br label %16

7:                                                ; preds = %1
  %8 = load ptr, ptr %2, align 8, !tbaa !3
  %9 = getelementptr inbounds nuw %struct._object, ptr %8, i32 0, i32 0
  %10 = getelementptr inbounds nuw %struct.anon, ptr %9, i32 0, i32 0
  %11 = load i32, ptr %10, align 8, !tbaa !47
  %12 = add i32 %11, -1
  store i32 %12, ptr %10, align 8, !tbaa !47
  %13 = icmp eq i32 %12, 0
  br i1 %13, label %14, label %16

14:                                               ; preds = %7
  %15 = load ptr, ptr %2, align 8, !tbaa !3
  call void @_Py_Dealloc(ptr noundef %15)
  br label %16

16:                                               ; preds = %6, %14, %7
  ret void
}

; Function Attrs: inlinehint nounwind uwtable
define internal ptr @_Py_NewRef(ptr noundef %0) #6 {
  %2 = alloca ptr, align 8
  store ptr %0, ptr %2, align 8, !tbaa !3
  %3 = load ptr, ptr %2, align 8, !tbaa !3
  call void @Py_INCREF(ptr noundef %3)
  %4 = load ptr, ptr %2, align 8, !tbaa !3
  ret ptr %4
}

; Function Attrs: nounwind uwtable
define internal ptr @perm_comb(ptr noundef %0, i64 noundef %1, i32 noundef %2) #0 {
  %4 = alloca ptr, align 8
  %5 = alloca ptr, align 8
  %6 = alloca i64, align 8
  %7 = alloca i32, align 4
  %8 = alloca i64, align 8
  %9 = alloca ptr, align 8
  %10 = alloca ptr, align 8
  %11 = alloca i32, align 4
  %12 = alloca ptr, align 8
  %13 = alloca ptr, align 8
  %14 = alloca ptr, align 8
  %15 = alloca ptr, align 8
  %16 = alloca ptr, align 8
  store ptr %0, ptr %5, align 8, !tbaa !3
  store i64 %1, ptr %6, align 8, !tbaa !91
  store i32 %2, ptr %7, align 4, !tbaa !17
  %17 = load i64, ptr %6, align 8, !tbaa !91
  %18 = icmp eq i64 %17, 0
  br i1 %18, label %19, label %21

19:                                               ; preds = %3
  %20 = call ptr @PyLong_FromLong(i64 noundef 1)
  store ptr %20, ptr %4, align 8
  br label %104

21:                                               ; preds = %3
  %22 = load i64, ptr %6, align 8, !tbaa !91
  %23 = icmp eq i64 %22, 1
  br i1 %23, label %24, label %27

24:                                               ; preds = %21
  %25 = load ptr, ptr %5, align 8, !tbaa !3
  %26 = call ptr @_Py_NewRef(ptr noundef %25)
  store ptr %26, ptr %4, align 8
  br label %104

27:                                               ; preds = %21
  call void @llvm.lifetime.start.p0(i64 8, ptr %8) #10
  %28 = load i64, ptr %6, align 8, !tbaa !91
  %29 = udiv i64 %28, 2
  store i64 %29, ptr %8, align 8, !tbaa !91
  call void @llvm.lifetime.start.p0(i64 8, ptr %9) #10
  call void @llvm.lifetime.start.p0(i64 8, ptr %10) #10
  %30 = load ptr, ptr %5, align 8, !tbaa !3
  %31 = load i64, ptr %8, align 8, !tbaa !91
  %32 = load i32, ptr %7, align 4, !tbaa !17
  %33 = call ptr @perm_comb(ptr noundef %30, i64 noundef %31, i32 noundef %32)
  store ptr %33, ptr %9, align 8, !tbaa !3
  %34 = load ptr, ptr %9, align 8, !tbaa !3
  %35 = icmp eq ptr %34, null
  br i1 %35, label %36, label %37

36:                                               ; preds = %27
  store ptr null, ptr %4, align 8
  store i32 1, ptr %11, align 4
  br label %103

37:                                               ; preds = %27
  call void @llvm.lifetime.start.p0(i64 8, ptr %12) #10
  %38 = load i64, ptr %8, align 8, !tbaa !91
  %39 = call ptr @PyLong_FromUnsignedLongLong(i64 noundef %38)
  store ptr %39, ptr %12, align 8, !tbaa !3
  %40 = load ptr, ptr %12, align 8, !tbaa !3
  %41 = icmp eq ptr %40, null
  br i1 %41, label %42, label %43

42:                                               ; preds = %37
  br label %100

43:                                               ; preds = %37
  %44 = load ptr, ptr %5, align 8, !tbaa !3
  %45 = load ptr, ptr %12, align 8, !tbaa !3
  %46 = call ptr @PyNumber_Subtract(ptr noundef %44, ptr noundef %45)
  store ptr %46, ptr %5, align 8, !tbaa !3
  %47 = load ptr, ptr %12, align 8, !tbaa !3
  call void @Py_DECREF(ptr noundef %47)
  %48 = load ptr, ptr %5, align 8, !tbaa !3
  %49 = icmp eq ptr %48, null
  br i1 %49, label %50, label %51

50:                                               ; preds = %43
  br label %100

51:                                               ; preds = %43
  %52 = load ptr, ptr %5, align 8, !tbaa !3
  %53 = load i64, ptr %6, align 8, !tbaa !91
  %54 = load i64, ptr %8, align 8, !tbaa !91
  %55 = sub i64 %53, %54
  %56 = load i32, ptr %7, align 4, !tbaa !17
  %57 = call ptr @perm_comb(ptr noundef %52, i64 noundef %55, i32 noundef %56)
  store ptr %57, ptr %10, align 8, !tbaa !3
  %58 = load ptr, ptr %5, align 8, !tbaa !3
  call void @Py_DECREF(ptr noundef %58)
  %59 = load ptr, ptr %10, align 8, !tbaa !3
  %60 = icmp eq ptr %59, null
  br i1 %60, label %61, label %62

61:                                               ; preds = %51
  br label %100

62:                                               ; preds = %51
  br label %63

63:                                               ; preds = %62
  call void @llvm.lifetime.start.p0(i64 8, ptr %13) #10
  store ptr %9, ptr %13, align 8, !tbaa !9
  call void @llvm.lifetime.start.p0(i64 8, ptr %14) #10
  %64 = load ptr, ptr %13, align 8, !tbaa !9
  %65 = load ptr, ptr %64, align 8, !tbaa !3
  store ptr %65, ptr %14, align 8, !tbaa !3
  %66 = load ptr, ptr %9, align 8, !tbaa !3
  %67 = load ptr, ptr %10, align 8, !tbaa !3
  %68 = call ptr @PyNumber_Multiply(ptr noundef %66, ptr noundef %67)
  %69 = load ptr, ptr %13, align 8, !tbaa !9
  store ptr %68, ptr %69, align 8, !tbaa !3
  %70 = load ptr, ptr %14, align 8, !tbaa !3
  call void @Py_DECREF(ptr noundef %70)
  call void @llvm.lifetime.end.p0(i64 8, ptr %14) #10
  call void @llvm.lifetime.end.p0(i64 8, ptr %13) #10
  br label %71

71:                                               ; preds = %63
  br label %72

72:                                               ; preds = %71
  %73 = load ptr, ptr %10, align 8, !tbaa !3
  call void @Py_DECREF(ptr noundef %73)
  %74 = load i32, ptr %7, align 4, !tbaa !17
  %75 = icmp ne i32 %74, 0
  br i1 %75, label %76, label %98

76:                                               ; preds = %72
  %77 = load ptr, ptr %9, align 8, !tbaa !3
  %78 = icmp ne ptr %77, null
  br i1 %78, label %79, label %98

79:                                               ; preds = %76
  %80 = load i64, ptr %6, align 8, !tbaa !91
  %81 = load i64, ptr %8, align 8, !tbaa !91
  %82 = call ptr @perm_comb_small(i64 noundef %80, i64 noundef %81, i32 noundef 1)
  store ptr %82, ptr %10, align 8, !tbaa !3
  %83 = load ptr, ptr %10, align 8, !tbaa !3
  %84 = icmp eq ptr %83, null
  br i1 %84, label %85, label %86

85:                                               ; preds = %79
  br label %100

86:                                               ; preds = %79
  br label %87

87:                                               ; preds = %86
  call void @llvm.lifetime.start.p0(i64 8, ptr %15) #10
  store ptr %9, ptr %15, align 8, !tbaa !9
  call void @llvm.lifetime.start.p0(i64 8, ptr %16) #10
  %88 = load ptr, ptr %15, align 8, !tbaa !9
  %89 = load ptr, ptr %88, align 8, !tbaa !3
  store ptr %89, ptr %16, align 8, !tbaa !3
  %90 = load ptr, ptr %9, align 8, !tbaa !3
  %91 = load ptr, ptr %10, align 8, !tbaa !3
  %92 = call ptr @PyNumber_FloorDivide(ptr noundef %90, ptr noundef %91)
  %93 = load ptr, ptr %15, align 8, !tbaa !9
  store ptr %92, ptr %93, align 8, !tbaa !3
  %94 = load ptr, ptr %16, align 8, !tbaa !3
  call void @Py_DECREF(ptr noundef %94)
  call void @llvm.lifetime.end.p0(i64 8, ptr %16) #10
  call void @llvm.lifetime.end.p0(i64 8, ptr %15) #10
  br label %95

95:                                               ; preds = %87
  br label %96

96:                                               ; preds = %95
  %97 = load ptr, ptr %10, align 8, !tbaa !3
  call void @Py_DECREF(ptr noundef %97)
  br label %98

98:                                               ; preds = %96, %76, %72
  %99 = load ptr, ptr %9, align 8, !tbaa !3
  store ptr %99, ptr %4, align 8
  store i32 1, ptr %11, align 4
  br label %102

100:                                              ; preds = %85, %61, %50, %42
  %101 = load ptr, ptr %9, align 8, !tbaa !3
  call void @Py_DECREF(ptr noundef %101)
  store ptr null, ptr %4, align 8
  store i32 1, ptr %11, align 4
  br label %102

102:                                              ; preds = %100, %98
  call void @llvm.lifetime.end.p0(i64 8, ptr %12) #10
  br label %103

103:                                              ; preds = %102, %36
  call void @llvm.lifetime.end.p0(i64 8, ptr %10) #10
  call void @llvm.lifetime.end.p0(i64 8, ptr %9) #10
  call void @llvm.lifetime.end.p0(i64 8, ptr %8) #10
  br label %104

104:                                              ; preds = %103, %24, %19
  %105 = load ptr, ptr %4, align 8
  ret ptr %105
}