; Function Attrs: nounwind uwtable
define internal fastcc ptr @perm_comb(ptr noundef nonnull %0, i64 noundef %1, i32 noundef range(i32 0, 2) %2) unnamed_addr #0 {
  switch i64 %1, label %11 [
    i64 0, label %4
    i64 1, label %6
  ]

4:                                                ; preds = %3
  %5 = tail call ptr @PyLong_FromLong(i64 noundef 1) #16
  br label %_Py_NewRef.exit

6:                                                ; preds = %3
  %7 = load i32, ptr %0, align 8, !tbaa !13
  %8 = icmp slt i32 %7, 0
  br i1 %8, label %_Py_NewRef.exit, label %9

9:                                                ; preds = %6
  %10 = add nuw i32 %7, 1
  store i32 %10, ptr %0, align 8, !tbaa !13
  br label %_Py_NewRef.exit

11:                                               ; preds = %3
  %12 = lshr i64 %1, 1
  %13 = tail call fastcc ptr @perm_comb(ptr noundef %0, i64 noundef %12, i32 noundef %2)
  %14 = icmp eq ptr %13, null
  br i1 %14, label %_Py_NewRef.exit, label %15

15:                                               ; preds = %11
  %16 = tail call ptr @PyLong_FromUnsignedLongLong(i64 noundef %12) #16
  %17 = icmp eq ptr %16, null
  br i1 %17, label %64, label %18

18:                                               ; preds = %15
  %19 = tail call ptr @PyNumber_Subtract(ptr noundef nonnull %0, ptr noundef nonnull %16) #16
  %20 = load i32, ptr %16, align 8, !tbaa !13
  %.not.i60 = icmp sgt i32 %20, -1
  br i1 %.not.i60, label %21, label %Py_DECREF.exit61

21:                                               ; preds = %18
  %22 = add nsw i32 %20, -1
  store i32 %22, ptr %16, align 8, !tbaa !13
  %23 = icmp eq i32 %22, 0
  br i1 %23, label %24, label %Py_DECREF.exit61

24:                                               ; preds = %21
  tail call void @_Py_Dealloc(ptr noundef nonnull %16) #16
  br label %Py_DECREF.exit61

Py_DECREF.exit61:                                 ; preds = %18, %21, %24
  %25 = icmp eq ptr %19, null
  br i1 %25, label %64, label %26

26:                                               ; preds = %Py_DECREF.exit61
  %27 = sub i64 %1, %12
  %28 = tail call fastcc ptr @perm_comb(ptr noundef %19, i64 noundef %27, i32 noundef %2)
  %29 = load i32, ptr %19, align 8, !tbaa !13
  %.not.i58 = icmp sgt i32 %29, -1
  br i1 %.not.i58, label %30, label %Py_DECREF.exit59

30:                                               ; preds = %26
  %31 = add nsw i32 %29, -1
  store i32 %31, ptr %19, align 8, !tbaa !13
  %32 = icmp eq i32 %31, 0
  br i1 %32, label %33, label %Py_DECREF.exit59

33:                                               ; preds = %30
  tail call void @_Py_Dealloc(ptr noundef nonnull %19) #16
  br label %Py_DECREF.exit59

Py_DECREF.exit59:                                 ; preds = %26, %30, %33
  %34 = icmp eq ptr %28, null
  br i1 %34, label %64, label %35

35:                                               ; preds = %Py_DECREF.exit59
  %36 = tail call ptr @PyNumber_Multiply(ptr noundef nonnull %13, ptr noundef nonnull %28) #16
  %37 = load i32, ptr %13, align 8, !tbaa !13
  %.not.i56 = icmp sgt i32 %37, -1
  br i1 %.not.i56, label %38, label %Py_DECREF.exit57

38:                                               ; preds = %35
  %39 = add nsw i32 %37, -1
  store i32 %39, ptr %13, align 8, !tbaa !13
  %40 = icmp eq i32 %39, 0
  br i1 %40, label %41, label %Py_DECREF.exit57

41:                                               ; preds = %38
  tail call void @_Py_Dealloc(ptr noundef nonnull %13) #16
  br label %Py_DECREF.exit57

Py_DECREF.exit57:                                 ; preds = %35, %38, %41
  %42 = load i32, ptr %28, align 8, !tbaa !13
  %.not.i54 = icmp sgt i32 %42, -1
  br i1 %.not.i54, label %43, label %Py_DECREF.exit55

43:                                               ; preds = %Py_DECREF.exit57
  %44 = add nsw i32 %42, -1
  store i32 %44, ptr %28, align 8, !tbaa !13
  %45 = icmp eq i32 %44, 0
  br i1 %45, label %46, label %Py_DECREF.exit55

46:                                               ; preds = %43
  tail call void @_Py_Dealloc(ptr noundef nonnull %28) #16
  br label %Py_DECREF.exit55

Py_DECREF.exit55:                                 ; preds = %Py_DECREF.exit57, %43, %46
  %47 = icmp ne i32 %2, 0
  %48 = icmp ne ptr %36, null
  %or.cond = select i1 %47, i1 %48, i1 false
  br i1 %or.cond, label %49, label %_Py_NewRef.exit

49:                                               ; preds = %Py_DECREF.exit55
  %50 = tail call fastcc ptr @perm_comb_small(i64 noundef %1, i64 noundef %12, i32 noundef 1)
  %51 = icmp eq ptr %50, null
  br i1 %51, label %64, label %52

52:                                               ; preds = %49
  %53 = tail call ptr @PyNumber_FloorDivide(ptr noundef nonnull %36, ptr noundef nonnull %50) #16
  %54 = load i32, ptr %36, align 8, !tbaa !13
  %.not.i52 = icmp sgt i32 %54, -1
  br i1 %.not.i52, label %55, label %Py_DECREF.exit53

55:                                               ; preds = %52
  %56 = add nsw i32 %54, -1
  store i32 %56, ptr %36, align 8, !tbaa !13
  %57 = icmp eq i32 %56, 0
  br i1 %57, label %58, label %Py_DECREF.exit53

58:                                               ; preds = %55
  tail call void @_Py_Dealloc(ptr noundef nonnull %36) #16
  br label %Py_DECREF.exit53

Py_DECREF.exit53:                                 ; preds = %52, %55, %58
  %59 = load i32, ptr %50, align 8, !tbaa !13
  %.not.i50 = icmp sgt i32 %59, -1
  br i1 %.not.i50, label %60, label %_Py_NewRef.exit

60:                                               ; preds = %Py_DECREF.exit53
  %61 = add nsw i32 %59, -1
  store i32 %61, ptr %50, align 8, !tbaa !13
  %62 = icmp eq i32 %61, 0
  br i1 %62, label %63, label %_Py_NewRef.exit

63:                                               ; preds = %60
  tail call void @_Py_Dealloc(ptr noundef nonnull %50) #16
  br label %_Py_NewRef.exit

64:                                               ; preds = %49, %Py_DECREF.exit59, %Py_DECREF.exit61, %15
  %.041 = phi ptr [ %13, %15 ], [ %13, %Py_DECREF.exit61 ], [ %13, %Py_DECREF.exit59 ], [ %36, %49 ]
  %65 = load i32, ptr %.041, align 8, !tbaa !13
  %.not.i = icmp sgt i32 %65, -1
  br i1 %.not.i, label %66, label %_Py_NewRef.exit

66:                                               ; preds = %64
  %67 = add nsw i32 %65, -1
  store i32 %67, ptr %.041, align 8, !tbaa !13
  %68 = icmp eq i32 %67, 0
  br i1 %68, label %69, label %_Py_NewRef.exit

69:                                               ; preds = %66
  tail call void @_Py_Dealloc(ptr noundef nonnull %.041) #16
  br label %_Py_NewRef.exit

_Py_NewRef.exit:                                  ; preds = %69, %66, %64, %63, %60, %Py_DECREF.exit53, %9, %6, %11, %Py_DECREF.exit55, %4
  %.0 = phi ptr [ %5, %4 ], [ null, %11 ], [ %36, %Py_DECREF.exit55 ], [ %0, %6 ], [ %0, %9 ], [ %53, %Py_DECREF.exit53 ], [ %53, %60 ], [ %53, %63 ], [ null, %64 ], [ null, %66 ], [ null, %69 ]
  ret ptr %.0
}